target datalayout = "e-m:e-p270:32:32-p271:32:32-p272:64:64-i64:64-i128:128-f80:128-n8:16:32:64-S128"
target triple = "x86_64-pc-linux-gnu"

%struct.Vec_Wrd_t_ = type { i32, i32, ptr }

; Function Attrs: inlinehint nounwind uwtable
define internal void @Vec_WrdWriteEntry(ptr noundef %0, i32 noundef %1, i64 noundef %2) #3 {
  %4 = alloca ptr, align 8
  %5 = alloca i32, align 4
  %6 = alloca i64, align 8
  store ptr %0, ptr %4, align 8, !tbaa !71
  store i32 %1, ptr %5, align 4, !tbaa !14
  store i64 %2, ptr %6, align 8, !tbaa !79
  %7 = load i64, ptr %6, align 8, !tbaa !79
  %8 = load ptr, ptr %4, align 8, !tbaa !71
  %9 = getelementptr inbounds nuw %struct.Vec_Wrd_t_, ptr %8, i32 0, i32 2
  %10 = load ptr, ptr %9, align 8, !tbaa !78
  %11 = load i32, ptr %5, align 4, !tbaa !14
  %12 = sext i32 %11 to i64
  %13 = getelementptr inbounds i64, ptr %10, i64 %12
  store i64 %7, ptr %13, align 8, !tbaa !79
  ret void
}

; Function Attrs: inlinehint nounwind uwtable
define internal i64 @Vec_WrdEntry(ptr noundef %0, i32 noundef %1) #3 {
  %3 = alloca ptr, align 8
  %4 = alloca i32, align 4
  store ptr %0, ptr %3, align 8, !tbaa !71
  store i32 %1, ptr %4, align 4, !tbaa !14
  %5 = load ptr, ptr %3, align 8, !tbaa !71
  %6 = getelementptr inbounds nuw %struct.Vec_Wrd_t_, ptr %5, i32 0, i32 2
  %7 = load ptr, ptr %6, align 8, !tbaa !78
  %8 = load i32, ptr %4, align 4, !tbaa !14
  %9 = sext i32 %8 to i64
  %10 = getelementptr inbounds i64, ptr %7, i64 %9
  %11 = load i64, ptr %10, align 8, !tbaa !79
  ret i64 %11
}

; Function Attrs: inlinehint nounwind uwtable
define internal i32 @Abc_MinInt(i32 noundef %0, i32 noundef %1) #3 {
  %3 = alloca i32, align 4
  %4 = alloca i32, align 4
  store i32 %0, ptr %3, align 4, !tbaa !14
  store i32 %1, ptr %4, align 4, !tbaa !14
  %5 = load i32, ptr %3, align 4, !tbaa !14
  %6 = load i32, ptr %4, align 4, !tbaa !14
  %7 = icmp slt i32 %5, %6
  br i1 %7, label %8, label %10

8:                                                ; preds = %2
  %9 = load i32, ptr %3, align 4, !tbaa !14
  br label %12

10:                                               ; preds = %2
  %11 = load i32, ptr %4, align 4, !tbaa !14
  br label %12

12:                                               ; preds = %10, %8
  %13 = phi i32 [ %9, %8 ], [ %11, %10 ]
  ret i32 %13
}

; Function Attrs: inlinehint nounwind uwtable
define internal i32 @Vec_WrdSize(ptr noundef %0) #3 {
  %2 = alloca ptr, align 8
  store ptr %0, ptr %2, align 8, !tbaa !71
  %3 = load ptr, ptr %2, align 8, !tbaa !71
  %4 = getelementptr inbounds nuw %struct.Vec_Wrd_t_, ptr %3, i32 0, i32 1
  %5 = load i32, ptr %4, align 4, !tbaa !76
  ret i32 %5
}

; Function Attrs: nounwind uwtable
define void @Vec_WrdZoneInsert(ptr noundef %0, i32 noundef %1, ptr noundef %2, i32 noundef %3, i32 noundef %4) #0 {
  %6 = alloca ptr, align 8
  %7 = alloca i32, align 4
  %8 = alloca ptr, align 8
  %9 = alloca i32, align 4
  %10 = alloca i32, align 4
  %11 = alloca i32, align 4
  %12 = alloca i32, align 4
  %13 = alloca i32, align 4
  %14 = alloca i32, align 4
  store ptr %0, ptr %6, align 8, !tbaa !71
  store i32 %1, ptr %7, align 4, !tbaa !14
  store ptr %2, ptr %8, align 8, !tbaa !71
  store i32 %3, ptr %9, align 4, !tbaa !14
  store i32 %4, ptr %10, align 4, !tbaa !14
  call void @llvm.lifetime.start.p0(i64 4, ptr %11) #13
  call void @llvm.lifetime.start.p0(i64 4, ptr %12) #13
  %15 = load ptr, ptr %6, align 8, !tbaa !71
  %16 = call i32 @Vec_WrdSize(ptr noundef %15)
  %17 = load i32, ptr %7, align 4, !tbaa !14
  %18 = sdiv i32 %16, %17
  store i32 %18, ptr %12, align 4, !tbaa !14
  call void @llvm.lifetime.start.p0(i64 4, ptr %13) #13
  call void @llvm.lifetime.start.p0(i64 4, ptr %14) #13
  %19 = load i32, ptr %10, align 4, !tbaa !14
  %20 = load i32, ptr %7, align 4, !tbaa !14
  %21 = load i32, ptr %9, align 4, !tbaa !14
  %22 = sub nsw i32 %20, %21
  %23 = call i32 @Abc_MinInt(i32 noundef %19, i32 noundef %22)
  store i32 %23, ptr %14, align 4, !tbaa !14
  store i32 0, ptr %11, align 4, !tbaa !14
  br label %24

24:                                               ; preds = %53, %5
  %25 = load i32, ptr %11, align 4, !tbaa !14
  %26 = load i32, ptr %12, align 4, !tbaa !14
  %27 = icmp slt i32 %25, %26
  br i1 %27, label %28, label %56

28:                                               ; preds = %24
  store i32 0, ptr %13, align 4, !tbaa !14
  br label %29

29:                                               ; preds = %49, %28
  %30 = load i32, ptr %13, align 4, !tbaa !14
  %31 = load i32, ptr %14, align 4, !tbaa !14
  %32 = icmp slt i32 %30, %31
  br i1 %32, label %33, label %52

33:                                               ; preds = %29
  %34 = load ptr, ptr %6, align 8, !tbaa !71
  %35 = load i32, ptr %11, align 4, !tbaa !14
  %36 = load i32, ptr %7, align 4, !tbaa !14
  %37 = mul nsw i32 %35, %36
  %38 = load i32, ptr %9, align 4, !tbaa !14
  %39 = add nsw i32 %37, %38
  %40 = load i32, ptr %13, align 4, !tbaa !14
  %41 = add nsw i32 %39, %40
  %42 = load ptr, ptr %8, align 8, !tbaa !71
  %43 = load i32, ptr %11, align 4, !tbaa !14
  %44 = load i32, ptr %10, align 4, !tbaa !14
  %45 = mul nsw i32 %43, %44
  %46 = load i32, ptr %13, align 4, !tbaa !14
  %47 = add nsw i32 %45, %46
  %48 = call i64 @Vec_WrdEntry(ptr noundef %42, i32 noundef %47)
  call void @Vec_WrdWriteEntry(ptr noundef %34, i32 noundef %41, i64 noundef %48)
  br label %49

49:                                               ; preds = %33
  %50 = load i32, ptr %13, align 4, !tbaa !14
  %51 = add nsw i32 %50, 1
  store i32 %51, ptr %13, align 4, !tbaa !14
  br label %29, !llvm.loop !86

52:                                               ; preds = %29
  br label %53

53:                                               ; preds = %52
  %54 = load i32, ptr %11, align 4, !tbaa !14
  %55 = add nsw i32 %54, 1
  store i32 %55, ptr %11, align 4, !tbaa !14
  br label %24, !llvm.loop !87

56:                                               ; preds = %24
  call void @llvm.lifetime.end.p0(i64 4, ptr %14) #13
  call void @llvm.lifetime.end.p0(i64 4, ptr %13) #13
  call void @llvm.lifetime.end.p0(i64 4, ptr %12) #13
  call void @llvm.lifetime.end.p0(i64 4, ptr %11) #13
  ret void
}