; Function Attrs: nofree norecurse nosync nounwind memory(readwrite, inaccessiblemem: none) uwtable
define void @Vec_WrdZoneInsert(ptr noundef readonly captures(none) %0, i32 noundef %1, ptr noundef readonly captures(none) %2, i32 noundef %3, i32 noundef %4) local_unnamed_addr #10 {
  %6 = getelementptr i8, ptr %0, i64 4
  %.val = load i32, ptr %6, align 4, !tbaa !60
  %7 = sdiv i32 %.val, %1
  %8 = sub nsw i32 %1, %3
  %9 = tail call noundef i32 @llvm.smin.i32(i32 %4, i32 %8)
  %10 = icmp sgt i32 %7, 0
  %11 = icmp sgt i32 %9, 0
  %or.cond = and i1 %10, %11
  br i1 %or.cond, label %.preheader.lr.ph.split.us, label %._crit_edge24

.preheader.lr.ph.split.us:                        ; preds = %5
  %12 = getelementptr i8, ptr %0, i64 8
  %13 = getelementptr i8, ptr %2, i64 8
  %.val20.us = load ptr, ptr %13, align 8, !tbaa !59
  %.val21.us = load ptr, ptr %12, align 8, !tbaa !59
  %14 = sext i32 %1 to i64
  %15 = sext i32 %3 to i64
  %16 = sext i32 %4 to i64
  %wide.trip.count31 = zext nneg i32 %7 to i64
  %wide.trip.count = zext nneg i32 %9 to i64
  %invariant.gep33 = getelementptr i64, ptr %.val21.us, i64 %15
  br label %.preheader.us

.preheader.us:                                    ; preds = %._crit_edge.us, %.preheader.lr.ph.split.us
  %indvars.iv28 = phi i64 [ %indvars.iv.next29, %._crit_edge.us ], [ 0, %.preheader.lr.ph.split.us ]
  %17 = mul nsw i64 %indvars.iv28, %14
  %18 = mul nsw i64 %indvars.iv28, %16
  %invariant.gep = getelementptr i64, ptr %.val20.us, i64 %18
  %gep34 = getelementptr i64, ptr %invariant.gep33, i64 %17
  br label %19

19:                                               ; preds = %.preheader.us, %19
  %indvars.iv = phi i64 [ 0, %.preheader.us ], [ %indvars.iv.next, %19 ]
  %gep = getelementptr i64, ptr %invariant.gep, i64 %indvars.iv
  %20 = load i64, ptr %gep, align 8, !tbaa !62
  %21 = getelementptr i64, ptr %gep34, i64 %indvars.iv
  store i64 %20, ptr %21, align 8, !tbaa !62
  %indvars.iv.next = add nuw nsw i64 %indvars.iv, 1
  %exitcond.not = icmp eq i64 %indvars.iv.next, %wide.trip.count
  br i1 %exitcond.not, label %._crit_edge.us, label %19, !llvm.loop !73

._crit_edge.us:                                   ; preds = %19
  %indvars.iv.next29 = add nuw nsw i64 %indvars.iv28, 1
  %exitcond32.not = icmp eq i64 %indvars.iv.next29, %wide.trip.count31
  br i1 %exitcond32.not, label %._crit_edge24, label %.preheader.us, !llvm.loop !74

._crit_edge24:                                    ; preds = %._crit_edge.us, %5
  ret void
}